; Function Attrs: nounwind uwtable
define zeroext range(i8 0, 2) i8 @l_Lean_Omega_IntList_leading___lambda__1(ptr noundef %0) local_unnamed_addr #0 {
  %2 = load ptr, ptr @l_Lean_Omega_IntList_get___closed__1, align 8, !tbaa !4
  %3 = ptrtoint ptr %0 to i64
  %4 = ptrtoint ptr %2 to i64
  %5 = and i64 %3, 1
  %6 = and i64 %5, %4
  %or.cond.not.i.i = icmp eq i64 %6, 0
  br i1 %or.cond.not.i.i, label %.critedge.i.i, label %7, !prof !13

7:                                                ; preds = %1
  %8 = icmp eq ptr %0, %2
  br label %lean_int_dec_eq.exit

.critedge.i.i:                                    ; preds = %1
  %9 = tail call zeroext i1 @lean_int_big_eq(ptr noundef %0, ptr noundef %2) #3
  br label %lean_int_dec_eq.exit

lean_int_dec_eq.exit:                             ; preds = %7, %.critedge.i.i
  %.0.i.i = phi i1 [ %8, %7 ], [ %9, %.critedge.i.i ]
  %10 = xor i1 %.0.i.i, true
  %. = zext i1 %10 to i8
  ret i8 %.
}